target datalayout = "e-m:e-p270:32:32-p271:32:32-p272:64:64-i64:64-i128:128-f80:128-n8:16:32:64-S128"
target triple = "x86_64-pc-linux-gnu"

%"class.std::__cxx11::basic_string" = type { %"struct.std::__cxx11::basic_string<char>::_Alloc_hider", i64, %union.anon }
%"struct.std::__cxx11::basic_string<char>::_Alloc_hider" = type { ptr }
%union.anon = type { i64, [8 x i8] }
%"class.std::shared_ptr" = type { %"class.std::__shared_ptr" }
%"class.std::__shared_ptr" = type { ptr, %"class.std::__shared_count" }
%"class.std::__shared_count" = type { ptr }
%"class.std::vector" = type { %"struct.std::_Vector_base" }
%"struct.std::_Vector_base" = type { %"struct.std::_Vector_base<open_spiel::State::PlayerAction, std::allocator<open_spiel::State::PlayerAction>>::_Vector_impl" }
%"struct.std::_Vector_base<open_spiel::State::PlayerAction, std::allocator<open_spiel::State::PlayerAction>>::_Vector_impl" = type { %"struct.std::_Vector_base<open_spiel::State::PlayerAction, std::allocator<open_spiel::State::PlayerAction>>::_Vector_impl_data" }
%"struct.std::_Vector_base<open_spiel::State::PlayerAction, std::allocator<open_spiel::State::PlayerAction>>::_Vector_impl_data" = type { ptr, ptr, ptr }
%"struct.std::array.16" = type { [52 x %"class.absl::debian2::optional"] }
%"class.absl::debian2::optional" = type { %"class.absl::debian2::optional_internal::optional_data" }
%"class.absl::debian2::optional_internal::optional_data" = type { %"class.absl::debian2::optional_internal::optional_data_base" }
%"class.absl::debian2::optional_internal::optional_data_base" = type { %"class.absl::debian2::optional_internal::optional_data_dtor_base" }
%"class.absl::debian2::optional_internal::optional_data_dtor_base" = type { i8, %union.anon.17 }
%union.anon.17 = type { i32 }
%"class.open_spiel::State" = type <{ ptr, %"class.std::shared_ptr", i32, i32, %"class.std::vector", i32, [4 x i8] }>
%"struct.open_spiel::State::PlayerAction" = type { i32, i64 }
%"struct.absl::debian2::optional_internal::optional_data_dtor_base<int>::dummy_type" = type { [4 x %"struct.absl::debian2::optional_internal::empty_struct"] }
%"struct.absl::debian2::optional_internal::empty_struct" = type { i8 }

@.str.11 = private unnamed_addr constant [132 x i8] c"generated/home/dtcxzyw/WorkSpace/Projects/compilers/llvm-opt-benchmark/bench/openspiel/open_spiel/open_spiel/games/spades/spades.cc\00", align 1
@.str.12 = private unnamed_addr constant [2 x i8] c":\00", align 1
@.str.13 = private unnamed_addr constant [2 x i8] c" \00", align 1
@.str.16 = private unnamed_addr constant [4 x i8] c" = \00", align 1
@.str.22 = private unnamed_addr constant [29 x i8] c"history_.size() >= kNumCards\00", align 1
@.str.23 = private unnamed_addr constant [17 x i8] c"\0Ahistory_.size()\00", align 1
@.str.24 = private unnamed_addr constant [15 x i8] c", kNumCards = \00", align 1

; Function Attrs: mustprogress nounwind uwtable
define linkonce_odr void @_ZN4absl7debian217optional_internal23optional_data_dtor_baseIiLb1EEC2Ev(ptr noundef nonnull align 4 dereferenceable(8) %0) unnamed_addr #5 comdat align 2 {
  %2 = alloca ptr, align 8
  store ptr %0, ptr %2, align 8
  %3 = load ptr, ptr %2, align 8
  %4 = getelementptr inbounds nuw %"class.absl::debian2::optional_internal::optional_data_dtor_base", ptr %3, i32 0, i32 0
  store i8 0, ptr %4, align 4
  %5 = getelementptr inbounds nuw %"class.absl::debian2::optional_internal::optional_data_dtor_base", ptr %3, i32 0, i32 1
  %6 = getelementptr inbounds nuw %"struct.absl::debian2::optional_internal::optional_data_dtor_base<int>::dummy_type", ptr %5, i32 0, i32 0
  %7 = getelementptr inbounds %"struct.absl::debian2::optional_internal::empty_struct", ptr %6, i64 4
  br label %8

8:                                                ; preds = %8, %1
  %9 = phi ptr [ %6, %1 ], [ %10, %8 ]
  %10 = getelementptr inbounds %"struct.absl::debian2::optional_internal::empty_struct", ptr %9, i64 1
  %11 = icmp eq ptr %10, %7
  br i1 %11, label %12, label %8

12:                                               ; preds = %8
  ret void
}

; Function Attrs: mustprogress nounwind uwtable
define linkonce_odr void @_ZN4absl7debian217optional_internal23optional_data_dtor_baseIiLb1EEC2IJiEEENS0_10in_place_tEDpOT_(ptr noundef nonnull align 4 dereferenceable(8) %0, ptr noundef nonnull align 4 dereferenceable(4) %1) unnamed_addr #5 comdat align 2 {
  %3 = alloca ptr, align 8
  %4 = alloca ptr, align 8
  store ptr %0, ptr %3, align 8
  store ptr %1, ptr %4, align 8
  %5 = load ptr, ptr %3, align 8
  %6 = getelementptr inbounds nuw %"class.absl::debian2::optional_internal::optional_data_dtor_base", ptr %5, i32 0, i32 0
  store i8 1, ptr %6, align 4
  %7 = getelementptr inbounds nuw %"class.absl::debian2::optional_internal::optional_data_dtor_base", ptr %5, i32 0, i32 1
  %8 = load ptr, ptr %4, align 8
  %9 = call noundef nonnull align 4 dereferenceable(4) ptr @_ZN4absl7debian27forwardIiEEOT_RNSt16remove_referenceIS2_E4typeE(ptr noundef nonnull align 4 dereferenceable(4) %8) #3
  %10 = load i32, ptr %9, align 4
  store i32 %10, ptr %7, align 4
  ret void
}

; Function Attrs: mustprogress nounwind uwtable
define linkonce_odr void @_ZN4absl7debian217optional_internal18optional_data_baseIiEC2Ev(ptr noundef nonnull align 4 dereferenceable(8) %0) unnamed_addr #5 comdat align 2 {
  %2 = alloca ptr, align 8
  store ptr %0, ptr %2, align 8
  %3 = load ptr, ptr %2, align 8
  call void @_ZN4absl7debian217optional_internal23optional_data_dtor_baseIiLb1EEC2Ev(ptr noundef nonnull align 4 dereferenceable(8) %3) #3
  ret void
}

; Function Attrs: mustprogress uwtable
define linkonce_odr void @_ZN4absl7debian217optional_internal18optional_data_baseIiECI2NS1_23optional_data_dtor_baseIiLb1EEEIJiEEENS0_10in_place_tEDpOT_(ptr noundef nonnull align 4 dereferenceable(8) %0, ptr noundef nonnull align 4 dereferenceable(4) %1) unnamed_addr #4 comdat align 2 {
  %3 = alloca ptr, align 8
  %4 = alloca ptr, align 8
  store ptr %0, ptr %3, align 8
  store ptr %1, ptr %4, align 8
  %5 = load ptr, ptr %3, align 8
  %6 = load ptr, ptr %4, align 8
  call void @_ZN4absl7debian217optional_internal23optional_data_dtor_baseIiLb1EEC2IJiEEENS0_10in_place_tEDpOT_(ptr noundef nonnull align 4 dereferenceable(8) %5, ptr noundef nonnull align 4 dereferenceable(4) %6)
  ret void
}

; Function Attrs: mustprogress nounwind uwtable
define linkonce_odr void @_ZN4absl7debian217optional_internal13optional_dataIiLb1EEC2Ev(ptr noundef nonnull align 4 dereferenceable(8) %0) unnamed_addr #5 comdat align 2 {
  %2 = alloca ptr, align 8
  store ptr %0, ptr %2, align 8
  %3 = load ptr, ptr %2, align 8
  call void @_ZN4absl7debian217optional_internal18optional_data_baseIiEC2Ev(ptr noundef nonnull align 4 dereferenceable(8) %3) #3
  ret void
}

; Function Attrs: mustprogress nounwind uwtable
define linkonce_odr noundef nonnull align 4 dereferenceable(8) ptr @_ZNSt14__array_traitsIN4absl7debian28optionalIiEELm52EE6_S_refERA52_KS3_m(ptr noundef nonnull align 4 dereferenceable(416) %0, i64 noundef %1) #5 comdat align 2 {
  %3 = alloca ptr, align 8
  %4 = alloca i64, align 8
  store ptr %0, ptr %3, align 8
  store i64 %1, ptr %4, align 8
  %5 = load ptr, ptr %3, align 8
  %6 = load i64, ptr %4, align 8
  %7 = getelementptr inbounds [52 x %"class.absl::debian2::optional"], ptr %5, i64 0, i64 %6
  ret ptr %7
}

; Function Attrs: mustprogress uwtable
define linkonce_odr void @_ZN4absl7debian217optional_internal13optional_dataIiLb1EECI2NS1_23optional_data_dtor_baseIiLb1EEEIJiEEENS0_10in_place_tEDpOT_(ptr noundef nonnull align 4 dereferenceable(8) %0, ptr noundef nonnull align 4 dereferenceable(4) %1) unnamed_addr #4 comdat align 2 {
  %3 = alloca ptr, align 8
  %4 = alloca ptr, align 8
  store ptr %0, ptr %3, align 8
  store ptr %1, ptr %4, align 8
  %5 = load ptr, ptr %3, align 8
  %6 = load ptr, ptr %4, align 8
  call void @_ZN4absl7debian217optional_internal18optional_data_baseIiECI2NS1_23optional_data_dtor_baseIiLb1EEEIJiEEENS0_10in_place_tEDpOT_(ptr noundef nonnull align 4 dereferenceable(8) %5, ptr noundef nonnull align 4 dereferenceable(4) %6)
  ret void
}

; Function Attrs: mustprogress nounwind uwtable
define linkonce_odr noundef nonnull align 4 dereferenceable(4) ptr @_ZN4absl7debian27forwardIiEEOT_RNSt16remove_referenceIS2_E4typeE(ptr noundef nonnull align 4 dereferenceable(4) %0) #5 comdat {
  %2 = alloca ptr, align 8
  store ptr %0, ptr %2, align 8
  %3 = load ptr, ptr %2, align 8
  ret ptr %3
}

; Function Attrs: mustprogress nounwind uwtable
define linkonce_odr void @_ZN4absl7debian28optionalIiEC2Ev(ptr noundef nonnull align 4 dereferenceable(8) %0) unnamed_addr #5 comdat align 2 {
  %2 = alloca ptr, align 8
  store ptr %0, ptr %2, align 8
  %3 = load ptr, ptr %2, align 8
  call void @_ZN4absl7debian217optional_internal13optional_dataIiLb1EEC2Ev(ptr noundef nonnull align 4 dereferenceable(8) %3) #3
  ret void
}

; Function Attrs: mustprogress nounwind uwtable
define linkonce_odr noundef nonnull align 4 dereferenceable(8) ptr @_ZNSt5arrayIN4absl7debian28optionalIiEELm52EEixEm(ptr noundef nonnull align 4 dereferenceable(416) %0, i64 noundef %1) #5 comdat align 2 {
  %3 = alloca ptr, align 8
  %4 = alloca i64, align 8
  store ptr %0, ptr %3, align 8
  store i64 %1, ptr %4, align 8
  %5 = load ptr, ptr %3, align 8
  %6 = getelementptr inbounds nuw %"struct.std::array.16", ptr %5, i32 0, i32 0
  %7 = load i64, ptr %4, align 8
  %8 = call noundef nonnull align 4 dereferenceable(8) ptr @_ZNSt14__array_traitsIN4absl7debian28optionalIiEELm52EE6_S_refERA52_KS3_m(ptr noundef nonnull align 4 dereferenceable(416) %6, i64 noundef %7) #3
  ret ptr %8
}

; Function Attrs: mustprogress nounwind uwtable
define linkonce_odr noundef nonnull align 8 dereferenceable(16) ptr @_ZNKSt6vectorIN10open_spiel5State12PlayerActionESaIS2_EEixEm(ptr noundef nonnull align 8 dereferenceable(24) %0, i64 noundef %1) #5 comdat align 2 {
  %3 = alloca ptr, align 8
  %4 = alloca i64, align 8
  store ptr %0, ptr %3, align 8
  store i64 %1, ptr %4, align 8
  %5 = load ptr, ptr %3, align 8
  %6 = getelementptr inbounds nuw %"struct.std::_Vector_base", ptr %5, i32 0, i32 0
  %7 = getelementptr inbounds nuw %"struct.std::_Vector_base<open_spiel::State::PlayerAction, std::allocator<open_spiel::State::PlayerAction>>::_Vector_impl_data", ptr %6, i32 0, i32 0
  %8 = load ptr, ptr %7, align 8
  %9 = load i64, ptr %4, align 8
  %10 = getelementptr inbounds %"struct.open_spiel::State::PlayerAction", ptr %8, i64 %9
  ret ptr %10
}

; Function Attrs: mustprogress uwtable
define linkonce_odr void @_ZN4absl7debian28optionalIiEC2IiTnNSt9enable_ifIXsr4absl11conjunctionINS0_8negationISt7is_sameINS0_10in_place_tENSt5decayIT_E4typeEEEENS5_IS6_IS2_SB_EEESt14is_convertibleIOS9_iESt16is_constructibleIiJSH_EEEE5valueEbE4typeELb0EEESH_(ptr noundef nonnull align 4 dereferenceable(8) %0, ptr noundef nonnull align 4 dereferenceable(4) %1) unnamed_addr #4 comdat align 2 {
  %3 = alloca ptr, align 8
  %4 = alloca ptr, align 8
  store ptr %0, ptr %3, align 8
  store ptr %1, ptr %4, align 8
  %5 = load ptr, ptr %3, align 8
  %6 = load ptr, ptr %4, align 8
  %7 = call noundef nonnull align 4 dereferenceable(4) ptr @_ZN4absl7debian27forwardIiEEOT_RNSt16remove_referenceIS2_E4typeE(ptr noundef nonnull align 4 dereferenceable(4) %6) #3
  call void @_ZN4absl7debian217optional_internal13optional_dataIiLb1EECI2NS1_23optional_data_dtor_baseIiLb1EEEIJiEEENS0_10in_place_tEDpOT_(ptr noundef nonnull align 4 dereferenceable(8) %5, ptr noundef nonnull align 4 dereferenceable(4) %7)
  ret void
}

; Function Attrs: mustprogress nounwind uwtable
define linkonce_odr void @_ZNSt5arrayIN4absl7debian28optionalIiEELm52EEC2Ev(ptr noundef nonnull align 4 dereferenceable(416) %0) unnamed_addr #5 comdat align 2 {
  %2 = alloca ptr, align 8
  store ptr %0, ptr %2, align 8
  %3 = load ptr, ptr %2, align 8
  %4 = getelementptr inbounds nuw %"struct.std::array.16", ptr %3, i32 0, i32 0
  %5 = getelementptr inbounds [52 x %"class.absl::debian2::optional"], ptr %4, i32 0, i32 0
  %6 = getelementptr inbounds %"class.absl::debian2::optional", ptr %5, i64 52
  br label %7

7:                                                ; preds = %7, %1
  %8 = phi ptr [ %5, %1 ], [ %9, %7 ]
  call void @_ZN4absl7debian28optionalIiEC2Ev(ptr noundef nonnull align 4 dereferenceable(8) %8) #3
  %9 = getelementptr inbounds %"class.absl::debian2::optional", ptr %8, i64 1
  %10 = icmp eq ptr %9, %6
  br i1 %10, label %11, label %7

11:                                               ; preds = %7
  ret void
}

; Function Attrs: mustprogress nounwind uwtable
define linkonce_odr noundef i64 @_ZNKSt6vectorIN10open_spiel5State12PlayerActionESaIS2_EE4sizeEv(ptr noundef nonnull align 8 dereferenceable(24) %0) #5 comdat align 2 {
  %2 = alloca ptr, align 8
  store ptr %0, ptr %2, align 8
  %3 = load ptr, ptr %2, align 8
  %4 = getelementptr inbounds nuw %"struct.std::_Vector_base", ptr %3, i32 0, i32 0
  %5 = getelementptr inbounds nuw %"struct.std::_Vector_base<open_spiel::State::PlayerAction, std::allocator<open_spiel::State::PlayerAction>>::_Vector_impl_data", ptr %4, i32 0, i32 1
  %6 = load ptr, ptr %5, align 8
  %7 = getelementptr inbounds nuw %"struct.std::_Vector_base", ptr %3, i32 0, i32 0
  %8 = getelementptr inbounds nuw %"struct.std::_Vector_base<open_spiel::State::PlayerAction, std::allocator<open_spiel::State::PlayerAction>>::_Vector_impl_data", ptr %7, i32 0, i32 0
  %9 = load ptr, ptr %8, align 8
  %10 = ptrtoint ptr %6 to i64
  %11 = ptrtoint ptr %9 to i64
  %12 = sub i64 %10, %11
  %13 = sdiv exact i64 %12, 16
  ret i64 %13
}

; Function Attrs: mustprogress uwtable
define void @_ZNK10open_spiel6spades11SpadesState12OriginalDealEv(ptr dead_on_unwind noalias writable sret(%"struct.std::array.16") align 4 %0, ptr noundef nonnull align 8 dereferenceable(897) %1) #4 align 2 personality ptr @__gxx_personality_v0 {
  %3 = alloca ptr, align 8
  %4 = alloca i64, align 8
  %5 = alloca i32, align 4
  %6 = alloca %"class.std::__cxx11::basic_string", align 8
  %7 = alloca i32, align 4
  %8 = alloca ptr, align 8
  %9 = alloca i32, align 4
  %10 = alloca i32, align 4
  %11 = alloca %"class.absl::debian2::optional", align 4
  %12 = alloca i32, align 4
  store ptr %1, ptr %3, align 8
  %13 = load ptr, ptr %3, align 8
  br label %14

14:                                               ; preds = %2
  %15 = getelementptr inbounds nuw %"class.open_spiel::State", ptr %13, i32 0, i32 4
  %16 = call noundef i64 @_ZNKSt6vectorIN10open_spiel5State12PlayerActionESaIS2_EE4sizeEv(ptr noundef nonnull align 8 dereferenceable(24) %15) #3
  store i64 %16, ptr %4, align 8
  store i32 52, ptr %5, align 4
  %17 = load i64, ptr %4, align 8
  %18 = load i32, ptr %5, align 4
  %19 = sext i32 %18 to i64
  %20 = icmp uge i64 %17, %19
  br i1 %20, label %27, label %21

21:                                               ; preds = %14
  store i32 171, ptr %7, align 4
  call void @_ZN10open_spiel8internal11SpielStrCatIJRA132_KcRA2_S2_iS6_RA29_S2_RA17_S2_RA4_S2_RmRA15_S2_RiEEENSt7__cxx1112basic_stringIcSt11char_traitsIcESaIcEEEDpOT_(ptr dead_on_unwind writable sret(%"class.std::__cxx11::basic_string") align 8 %6, ptr noundef nonnull align 1 dereferenceable(132) @.str.11, ptr noundef nonnull align 1 dereferenceable(2) @.str.12, ptr noundef nonnull align 4 dereferenceable(4) %7, ptr noundef nonnull align 1 dereferenceable(2) @.str.13, ptr noundef nonnull align 1 dereferenceable(29) @.str.22, ptr noundef nonnull align 1 dereferenceable(17) @.str.23, ptr noundef nonnull align 1 dereferenceable(4) @.str.16, ptr noundef nonnull align 8 dereferenceable(8) %4, ptr noundef nonnull align 1 dereferenceable(15) @.str.24, ptr noundef nonnull align 4 dereferenceable(4) %5)
  invoke void @_ZN10open_spiel15SpielFatalErrorERKNSt7__cxx1112basic_stringIcSt11char_traitsIcESaIcEEE(ptr noundef nonnull align 8 dereferenceable(32) %6) #15
          to label %22 unwind label %23

22:                                               ; preds = %21
  unreachable

23:                                               ; preds = %21
  %24 = landingpad { ptr, i32 }
          cleanup
  %25 = extractvalue { ptr, i32 } %24, 0
  store ptr %25, ptr %8, align 8
  %26 = extractvalue { ptr, i32 } %24, 1
  store i32 %26, ptr %9, align 4
  call void @_ZNSt7__cxx1112basic_stringIcSt11char_traitsIcESaIcEED1Ev(ptr noundef nonnull align 8 dereferenceable(32) %6) #3
  br label %46

27:                                               ; preds = %14
  br label %28

28:                                               ; preds = %27
  call void @_ZNSt5arrayIN4absl7debian28optionalIiEELm52EEC2Ev(ptr noundef nonnull align 4 dereferenceable(416) %0) #3
  store i32 0, ptr %10, align 4
  br label %29

29:                                               ; preds = %42, %28
  %30 = load i32, ptr %10, align 4
  %31 = icmp slt i32 %30, 52
  br i1 %31, label %32, label %45

32:                                               ; preds = %29
  %33 = load i32, ptr %10, align 4
  %34 = srem i32 %33, 4
  store i32 %34, ptr %12, align 4
  call void @_ZN4absl7debian28optionalIiEC2IiTnNSt9enable_ifIXsr4absl11conjunctionINS0_8negationISt7is_sameINS0_10in_place_tENSt5decayIT_E4typeEEEENS5_IS6_IS2_SB_EEESt14is_convertibleIOS9_iESt16is_constructibleIiJSH_EEEE5valueEbE4typeELb0EEESH_(ptr noundef nonnull align 4 dereferenceable(8) %11, ptr noundef nonnull align 4 dereferenceable(4) %12)
  %35 = getelementptr inbounds nuw %"class.open_spiel::State", ptr %13, i32 0, i32 4
  %36 = load i32, ptr %10, align 4
  %37 = sext i32 %36 to i64
  %38 = call noundef nonnull align 8 dereferenceable(16) ptr @_ZNKSt6vectorIN10open_spiel5State12PlayerActionESaIS2_EEixEm(ptr noundef nonnull align 8 dereferenceable(24) %35, i64 noundef %37) #3
  %39 = getelementptr inbounds nuw %"struct.open_spiel::State::PlayerAction", ptr %38, i32 0, i32 1
  %40 = load i64, ptr %39, align 8
  %41 = call noundef nonnull align 4 dereferenceable(8) ptr @_ZNSt5arrayIN4absl7debian28optionalIiEELm52EEixEm(ptr noundef nonnull align 4 dereferenceable(416) %0, i64 noundef %40) #3
  call void @llvm.memcpy.p0.p0.i64(ptr align 4 %41, ptr align 4 %11, i64 8, i1 false)
  br label %42

42:                                               ; preds = %32
  %43 = load i32, ptr %10, align 4
  %44 = add nsw i32 %43, 1
  store i32 %44, ptr %10, align 4
  br label %29, !llvm.loop !13

45:                                               ; preds = %29
  ret void

46:                                               ; preds = %23
  %47 = load ptr, ptr %8, align 8
  %48 = load i32, ptr %9, align 4
  %49 = insertvalue { ptr, i32 } poison, ptr %47, 0
  %50 = insertvalue { ptr, i32 } %49, i32 %48, 1
  resume { ptr, i32 } %50
}