; Function Attrs: mustprogress uwtable
define void @_ZNK10open_spiel6spades11SpadesState12OriginalDealEv(ptr dead_on_unwind noalias nocapture writable writeonly sret(%"struct.std::array.16") align 4 %0, ptr nocapture noundef nonnull readonly align 8 dereferenceable(897) %1) local_unnamed_addr #3 align 2 personality ptr @__gxx_personality_v0 {
  %3 = alloca i64, align 8
  %4 = alloca i32, align 4
  %5 = alloca %"class.std::__cxx11::basic_string", align 8
  %6 = alloca i32, align 4
  %7 = getelementptr inbounds nuw i8, ptr %1, i64 32
  %8 = getelementptr inbounds i8, ptr %1, i64 40
  %9 = load ptr, ptr %8, align 8
  %10 = load ptr, ptr %7, align 8
  %11 = ptrtoint ptr %9 to i64
  %12 = ptrtoint ptr %10 to i64
  %13 = sub i64 %11, %12
  %14 = ashr exact i64 %13, 4
  store i64 %14, ptr %3, align 8
  store i32 52, ptr %4, align 4
  %15 = icmp ugt i64 %14, 51
  br i1 %15, label %.preheader, label %16

16:                                               ; preds = %2
  store i32 171, ptr %6, align 4
  call void @_ZN10open_spiel8internal11SpielStrCatIJRA132_KcRA2_S2_iS6_RA29_S2_RA17_S2_RA4_S2_RmRA15_S2_RiEEENSt7__cxx1112basic_stringIcSt11char_traitsIcESaIcEEEDpOT_(ptr dead_on_unwind nonnull writable sret(%"class.std::__cxx11::basic_string") align 8 %5, ptr noundef nonnull align 1 dereferenceable(132) @.str.11, ptr noundef nonnull align 1 dereferenceable(2) @.str.12, ptr noundef nonnull align 4 dereferenceable(4) %6, ptr noundef nonnull align 1 dereferenceable(2) @.str.13, ptr noundef nonnull align 1 dereferenceable(29) @.str.22, ptr noundef nonnull align 1 dereferenceable(17) @.str.23, ptr noundef nonnull align 1 dereferenceable(4) @.str.16, ptr noundef nonnull align 8 dereferenceable(8) %3, ptr noundef nonnull align 1 dereferenceable(15) @.str.24, ptr noundef nonnull align 4 dereferenceable(4) %4)
  invoke void @_ZN10open_spiel15SpielFatalErrorERKNSt7__cxx1112basic_stringIcSt11char_traitsIcESaIcEEE(ptr noundef nonnull align 8 dereferenceable(32) %5) #24
          to label %17 unwind label %18

17:                                               ; preds = %16
  unreachable

18:                                               ; preds = %16
  %19 = landingpad { ptr, i32 }
          cleanup
  call void @_ZNSt7__cxx1112basic_stringIcSt11char_traitsIcESaIcEED1Ev(ptr noundef nonnull align 8 dereferenceable(32) %5) #25
  resume { ptr, i32 } %19

.preheader:                                       ; preds = %2, %.preheader
  %.idx.i = phi i64 [ %.add.i, %.preheader ], [ 0, %2 ]
  %.ptr.i = getelementptr inbounds i8, ptr %0, i64 %.idx.i
  store i8 0, ptr %.ptr.i, align 4
  %.add.i = add nuw nsw i64 %.idx.i, 8
  %20 = icmp eq i64 %.add.i, 416
  br i1 %20, label %_ZNSt5arrayIN4absl7debian28optionalIiEELm52EEC2Ev.exit, label %.preheader

_ZNSt5arrayIN4absl7debian28optionalIiEELm52EEC2Ev.exit: ; preds = %.preheader, %_ZNSt5arrayIN4absl7debian28optionalIiEELm52EEC2Ev.exit
  %indvars.iv = phi i64 [ %indvars.iv.next, %_ZNSt5arrayIN4absl7debian28optionalIiEELm52EEC2Ev.exit ], [ 0, %.preheader ]
  %21 = getelementptr inbounds %"struct.open_spiel::State::PlayerAction", ptr %10, i64 %indvars.iv, i32 1
  %22 = load i64, ptr %21, align 8
  %23 = getelementptr inbounds [52 x %"class.absl::debian2::optional"], ptr %0, i64 0, i64 %22
  %.sroa.26.0.insert.ext = shl i64 %indvars.iv, 32
  %.sroa.26.0.insert.shift = and i64 %.sroa.26.0.insert.ext, 12884901888
  %.sroa.0.0.insert.insert = or disjoint i64 %.sroa.26.0.insert.shift, 1
  store i64 %.sroa.0.0.insert.insert, ptr %23, align 4
  %indvars.iv.next = add nuw nsw i64 %indvars.iv, 1
  %exitcond.not = icmp eq i64 %indvars.iv.next, 52
  br i1 %exitcond.not, label %24, label %_ZNSt5arrayIN4absl7debian28optionalIiEELm52EEC2Ev.exit, !llvm.loop !43

24:                                               ; preds = %_ZNSt5arrayIN4absl7debian28optionalIiEELm52EEC2Ev.exit
  ret void
}